#include <math.h>
#include <stdio.h>
#include <stdlib.h>
#include <string.h>

void main()
{
	void sort(char x[], int n);
	int m,n,r;
	char a[50],b[50];
	scanf("%s%s",a,b);
	m=strlen(a);
	n=strlen(b);
	sort(a,m);
	sort(b,n); 
	r=strcmp(a,b);
	if(r==0) printf("YES");
	else printf("NO");
}

void sort(char x[], int n)
{
	int i,j,k,t;
	for(i=0;i<n-1;i++)
	{
		k=i;
		for(j=i+1;j<n;j++)
		if(x[j]>x[k]) k=j;
		if(k!=i)
		{
		t=x[i];x[i]=x[k];x[k]=t;
		}
	}
}
